; Function Attrs: mustprogress nounwind uwtable
define void @_ZN3net14StrikeRegisterD2Ev(ptr noundef nonnull align 8 captures(none) dereferenceable(56) %0) unnamed_addr #8 align 2 personality ptr @__gxx_personality_v0 {
  %2 = getelementptr inbounds nuw i8, ptr %0, i64 40
  %3 = load ptr, ptr %2, align 8, !tbaa !22
  %4 = icmp eq ptr %3, null
  br i1 %4, label %6, label %5

5:                                                ; preds = %1
  tail call void @_ZdaPv(ptr noundef nonnull %3) #27
  br label %6

6:                                                ; preds = %5, %1
  %7 = getelementptr inbounds nuw i8, ptr %0, i64 48
  %8 = load ptr, ptr %7, align 8, !tbaa !23
  %.not.i = icmp eq ptr %8, null
  br i1 %.not.i, label %_ZNSt10unique_ptrIA_hSt14default_deleteIS0_EED2Ev.exit, label %_ZNKSt14default_deleteIA_hEclIhEENSt9enable_ifIXsr14is_convertibleIPA_T_PS0_EE5valueEvE4typeEPS4_.exit.i

_ZNKSt14default_deleteIA_hEclIhEENSt9enable_ifIXsr14is_convertibleIPA_T_PS0_EE5valueEvE4typeEPS4_.exit.i: ; preds = %6
  tail call void @_ZdaPv(ptr noundef nonnull %8) #27
  br label %_ZNSt10unique_ptrIA_hSt14default_deleteIS0_EED2Ev.exit

_ZNSt10unique_ptrIA_hSt14default_deleteIS0_EED2Ev.exit: ; preds = %6, %_ZNKSt14default_deleteIA_hEclIhEENSt9enable_ifIXsr14is_convertibleIPA_T_PS0_EE5valueEvE4typeEPS4_.exit.i
  store ptr null, ptr %7, align 8, !tbaa !23
  ret void
}